; Function Attrs: nounwind uwtable
define internal range(i32 -21, 11) i32 @cvNlsResidual(ptr noundef %0, ptr noundef %1, ptr noundef captures(address_is_null) %2) #0 {
  %4 = icmp eq ptr %2, null
  br i1 %4, label %5, label %6

5:                                                ; preds = %3
  tail call void (ptr, i32, i32, ptr, ptr, ptr, ...) @cvProcessError(ptr noundef null, i32 noundef -21, i32 noundef 360, ptr noundef nonnull @__func__.cvNlsResidual, ptr noundef nonnull @.str, ptr noundef nonnull @.str.1) #3
  br label %35

6:                                                ; preds = %3
  %7 = getelementptr inbounds nuw i8, ptr %2, i64 336
  %8 = load ptr, ptr %7, align 8, !tbaa !31
  %9 = getelementptr inbounds nuw i8, ptr %2, i64 448
  %10 = load ptr, ptr %9, align 8, !tbaa !32
  tail call void @N_VLinearSum(double noundef 1.000000e+00, ptr noundef %8, double noundef 1.000000e+00, ptr noundef %0, ptr noundef %10) #3
  %11 = getelementptr inbounds nuw i8, ptr %2, i64 1912
  %12 = load ptr, ptr %11, align 8, !tbaa !30
  %13 = getelementptr inbounds nuw i8, ptr %2, i64 1032
  %14 = load double, ptr %13, align 8, !tbaa !33
  %15 = load ptr, ptr %9, align 8, !tbaa !32
  %16 = getelementptr inbounds nuw i8, ptr %2, i64 472
  %17 = load ptr, ptr %16, align 8, !tbaa !34
  %18 = getelementptr inbounds nuw i8, ptr %2, i64 24
  %19 = load ptr, ptr %18, align 8, !tbaa !35
  %20 = tail call i32 %12(double noundef %14, ptr noundef %15, ptr noundef %17, ptr noundef %19) #3
  %21 = getelementptr inbounds nuw i8, ptr %2, i64 1584
  %22 = load i64, ptr %21, align 8, !tbaa !36
  %23 = add nsw i64 %22, 1
  store i64 %23, ptr %21, align 8, !tbaa !36
  %24 = icmp slt i32 %20, 0
  br i1 %24, label %35, label %25

25:                                               ; preds = %6
  %.not = icmp eq i32 %20, 0
  br i1 %.not, label %26, label %35

26:                                               ; preds = %25
  %27 = getelementptr inbounds nuw i8, ptr %2, i64 1312
  %28 = load double, ptr %27, align 8, !tbaa !37
  %29 = getelementptr inbounds nuw i8, ptr %2, i64 344
  %30 = load ptr, ptr %29, align 8, !tbaa !31
  tail call void @N_VLinearSum(double noundef %28, ptr noundef %30, double noundef 1.000000e+00, ptr noundef %0, ptr noundef %1) #3
  %31 = getelementptr inbounds nuw i8, ptr %2, i64 1320
  %32 = load double, ptr %31, align 8, !tbaa !38
  %33 = fneg double %32
  %34 = load ptr, ptr %16, align 8, !tbaa !34
  tail call void @N_VLinearSum(double noundef %33, ptr noundef %34, double noundef 1.000000e+00, ptr noundef %1, ptr noundef %1) #3
  br label %35

35:                                               ; preds = %25, %6, %26, %5
  %.0 = phi i32 [ -21, %5 ], [ 0, %26 ], [ -8, %6 ], [ 10, %25 ]
  ret i32 %.0
}